target datalayout = "e-m:e-p270:32:32-p271:32:32-p272:64:64-i64:64-i128:128-f80:128-n8:16:32:64-S128"
target triple = "x86_64-pc-linux-gnu"

%struct.buffer = type { i32, %struct.stat, ptr, i64, i64, ptr, i64 }
%struct.stat = type { i64, i64, i64, i32, i32, i32, i32, i64, i64, i64, i64, %struct.timespec, %struct.timespec, %struct.timespec, [3 x i64] }
%struct.timespec = type { i64, i64 }

; Function Attrs: nounwind uwtable
define internal i64 @trim_nuls(ptr noundef %0, i64 noundef %1) #0 {
  %3 = alloca ptr, align 8
  %4 = alloca i64, align 8
  store ptr %0, ptr %3, align 8, !tbaa !17
  store i64 %1, ptr %4, align 8, !tbaa !15
  br label %5

5:                                                ; preds = %18, %2
  %6 = load i64, ptr %4, align 8, !tbaa !15
  %7 = icmp ugt i64 %6, 1
  br i1 %7, label %8, label %16

8:                                                ; preds = %5
  %9 = load ptr, ptr %3, align 8, !tbaa !17
  %10 = load i64, ptr %4, align 8, !tbaa !15
  %11 = sub i64 %10, 1
  %12 = getelementptr inbounds nuw i8, ptr %9, i64 %11
  %13 = load i8, ptr %12, align 1, !tbaa !20
  %14 = zext i8 %13 to i32
  %15 = icmp eq i32 %14, 0
  br label %16

16:                                               ; preds = %8, %5
  %17 = phi i1 [ false, %5 ], [ %15, %8 ]
  br i1 %17, label %18, label %21

18:                                               ; preds = %16
  %19 = load i64, ptr %4, align 8, !tbaa !15
  %20 = add i64 %19, -1
  store i64 %20, ptr %4, align 8, !tbaa !15
  br label %5

21:                                               ; preds = %16
  %22 = load i64, ptr %4, align 8, !tbaa !15
  ret i64 %22
}

; Function Attrs: nounwind uwtable
define hidden i32 @file_ascmagic(ptr noundef %0, ptr noundef %1, i32 noundef %2) #0 {
  %4 = alloca ptr, align 8
  %5 = alloca ptr, align 8
  %6 = alloca i32, align 4
  %7 = alloca ptr, align 8
  %8 = alloca i64, align 8
  %9 = alloca i32, align 4
  %10 = alloca %struct.buffer, align 8
  %11 = alloca ptr, align 8
  %12 = alloca ptr, align 8
  %13 = alloca ptr, align 8
  store ptr %0, ptr %4, align 8, !tbaa !4
  store ptr %1, ptr %5, align 8, !tbaa !9
  store i32 %2, ptr %6, align 4, !tbaa !11
  call void @llvm.lifetime.start.p0(i64 8, ptr %7) #7
  store ptr null, ptr %7, align 8, !tbaa !13
  call void @llvm.lifetime.start.p0(i64 8, ptr %8) #7
  store i64 0, ptr %8, align 8, !tbaa !15
  call void @llvm.lifetime.start.p0(i64 4, ptr %9) #7
  store i32 1, ptr %9, align 4, !tbaa !11
  call void @llvm.lifetime.start.p0(i64 192, ptr %10) #7
  call void @llvm.lifetime.start.p0(i64 8, ptr %11) #7
  store ptr null, ptr %11, align 8, !tbaa !17
  call void @llvm.lifetime.start.p0(i64 8, ptr %12) #7
  store ptr null, ptr %12, align 8, !tbaa !17
  call void @llvm.lifetime.start.p0(i64 8, ptr %13) #7
  store ptr null, ptr %13, align 8, !tbaa !17
  %14 = load ptr, ptr %5, align 8, !tbaa !9
  call void @llvm.memcpy.p0.p0.i64(ptr align 8 %10, ptr align 8 %14, i64 192, i1 false), !tbaa.struct !19
  %15 = load ptr, ptr %5, align 8, !tbaa !9
  %16 = getelementptr inbounds nuw %struct.buffer, ptr %15, i32 0, i32 2
  %17 = load ptr, ptr %16, align 8, !tbaa !22
  %18 = load ptr, ptr %5, align 8, !tbaa !9
  %19 = getelementptr inbounds nuw %struct.buffer, ptr %18, i32 0, i32 3
  %20 = load i64, ptr %19, align 8, !tbaa !26
  %21 = call i64 @trim_nuls(ptr noundef %17, i64 noundef %20)
  %22 = getelementptr inbounds nuw %struct.buffer, ptr %10, i32 0, i32 3
  store i64 %21, ptr %22, align 8, !tbaa !26
  %23 = getelementptr inbounds nuw %struct.buffer, ptr %10, i32 0, i32 3
  %24 = load i64, ptr %23, align 8, !tbaa !26
  %25 = and i64 %24, 1
  %26 = icmp ne i64 %25, 0
  br i1 %26, label %27, label %37

27:                                               ; preds = %3
  %28 = load ptr, ptr %5, align 8, !tbaa !9
  %29 = getelementptr inbounds nuw %struct.buffer, ptr %28, i32 0, i32 3
  %30 = load i64, ptr %29, align 8, !tbaa !26
  %31 = and i64 %30, 1
  %32 = icmp ne i64 %31, 0
  br i1 %32, label %37, label %33

33:                                               ; preds = %27
  %34 = getelementptr inbounds nuw %struct.buffer, ptr %10, i32 0, i32 3
  %35 = load i64, ptr %34, align 8, !tbaa !26
  %36 = add i64 %35, 1
  store i64 %36, ptr %34, align 8, !tbaa !26
  br label %37

37:                                               ; preds = %33, %27, %3
  %38 = load ptr, ptr %4, align 8, !tbaa !4
  %39 = call i32 @file_encoding(ptr noundef %38, ptr noundef %10, ptr noundef %7, ptr noundef %8, ptr noundef %11, ptr noundef %12, ptr noundef %13)
  %40 = icmp eq i32 %39, 0
  br i1 %40, label %41, label %42

41:                                               ; preds = %37
  store i32 0, ptr %9, align 4, !tbaa !11
  br label %50

42:                                               ; preds = %37
  %43 = load ptr, ptr %4, align 8, !tbaa !4
  %44 = load ptr, ptr %7, align 8, !tbaa !13
  %45 = load i64, ptr %8, align 8, !tbaa !15
  %46 = load ptr, ptr %11, align 8, !tbaa !17
  %47 = load ptr, ptr %13, align 8, !tbaa !17
  %48 = load i32, ptr %6, align 4, !tbaa !11
  %49 = call i32 @file_ascmagic_with_encoding(ptr noundef %43, ptr noundef %10, ptr noundef %44, i64 noundef %45, ptr noundef %46, ptr noundef %47, i32 noundef %48)
  store i32 %49, ptr %9, align 4, !tbaa !11
  br label %50

50:                                               ; preds = %42, %41
  %51 = load ptr, ptr %7, align 8, !tbaa !13
  call void @_efree(ptr noundef %51)
  %52 = load i32, ptr %9, align 4, !tbaa !11
  call void @llvm.lifetime.end.p0(i64 8, ptr %13) #7
  call void @llvm.lifetime.end.p0(i64 8, ptr %12) #7
  call void @llvm.lifetime.end.p0(i64 8, ptr %11) #7
  call void @llvm.lifetime.end.p0(i64 192, ptr %10) #7
  call void @llvm.lifetime.end.p0(i64 4, ptr %9) #7
  call void @llvm.lifetime.end.p0(i64 8, ptr %8) #7
  call void @llvm.lifetime.end.p0(i64 8, ptr %7) #7
  ret i32 %52
}