; Function Attrs: nounwind uwtable
define hidden i32 @file_ascmagic(ptr noundef %0, ptr noundef readonly captures(none) %1, i32 noundef %2) local_unnamed_addr #0 {
  %4 = alloca ptr, align 8
  %5 = alloca i64, align 8
  %6 = alloca %struct.buffer, align 8
  %7 = alloca ptr, align 8
  %8 = alloca ptr, align 8
  %9 = alloca ptr, align 8
  call void @llvm.lifetime.start.p0(i64 8, ptr nonnull %4) #7
  store ptr null, ptr %4, align 8, !tbaa !4
  call void @llvm.lifetime.start.p0(i64 8, ptr nonnull %5) #7
  store i64 0, ptr %5, align 8, !tbaa !9
  call void @llvm.lifetime.start.p0(i64 192, ptr nonnull %6) #7
  call void @llvm.lifetime.start.p0(i64 8, ptr nonnull %7) #7
  store ptr null, ptr %7, align 8, !tbaa !11
  call void @llvm.lifetime.start.p0(i64 8, ptr nonnull %8) #7
  store ptr null, ptr %8, align 8, !tbaa !11
  call void @llvm.lifetime.start.p0(i64 8, ptr nonnull %9) #7
  store ptr null, ptr %9, align 8, !tbaa !11
  call void @llvm.memcpy.p0.p0.i64(ptr noundef nonnull align 8 dereferenceable(192) %6, ptr noundef nonnull align 8 dereferenceable(192) %1, i64 192, i1 false), !tbaa.struct !13
  %10 = getelementptr inbounds nuw i8, ptr %1, i64 152
  %11 = load ptr, ptr %10, align 8, !tbaa !18
  %12 = getelementptr inbounds nuw i8, ptr %1, i64 160
  %13 = load i64, ptr %12, align 8, !tbaa !22
  %invariant.gep.i = getelementptr i8, ptr %11, i64 -1
  %14 = icmp ugt i64 %13, 1
  br i1 %14, label %.lr.ph.i, label %trim_nuls.exit

.lr.ph.i:                                         ; preds = %3, %17
  %.04.i = phi i64 [ %18, %17 ], [ %13, %3 ]
  %gep.i = getelementptr i8, ptr %invariant.gep.i, i64 %.04.i
  %15 = load i8, ptr %gep.i, align 1, !tbaa !16
  %16 = icmp eq i8 %15, 0
  br i1 %16, label %17, label %trim_nuls.exit

17:                                               ; preds = %.lr.ph.i
  %18 = add i64 %.04.i, -1
  %19 = icmp ugt i64 %18, 1
  br i1 %19, label %.lr.ph.i, label %trim_nuls.exit.thread

trim_nuls.exit.thread:                            ; preds = %17
  %20 = getelementptr inbounds nuw i8, ptr %6, i64 160
  store i64 1, ptr %20, align 8, !tbaa !22
  br label %23

trim_nuls.exit:                                   ; preds = %.lr.ph.i, %3
  %.0.lcssa.i = phi i64 [ %13, %3 ], [ %.04.i, %.lr.ph.i ]
  %21 = getelementptr inbounds nuw i8, ptr %6, i64 160
  store i64 %.0.lcssa.i, ptr %21, align 8, !tbaa !22
  %22 = and i64 %.0.lcssa.i, 1
  %.not = icmp eq i64 %22, 0
  br i1 %.not, label %28, label %23

23:                                               ; preds = %trim_nuls.exit.thread, %trim_nuls.exit
  %24 = phi ptr [ %20, %trim_nuls.exit.thread ], [ %21, %trim_nuls.exit ]
  %.0.lcssa.i10 = phi i64 [ 1, %trim_nuls.exit.thread ], [ %.0.lcssa.i, %trim_nuls.exit ]
  %25 = and i64 %13, 1
  %.not7 = icmp eq i64 %25, 0
  br i1 %.not7, label %26, label %28

26:                                               ; preds = %23
  %27 = add i64 %.0.lcssa.i10, 1
  store i64 %27, ptr %24, align 8, !tbaa !22
  br label %28

28:                                               ; preds = %26, %23, %trim_nuls.exit
  %29 = call i32 @file_encoding(ptr noundef %0, ptr noundef nonnull %6, ptr noundef nonnull %4, ptr noundef nonnull %5, ptr noundef nonnull %7, ptr noundef nonnull %8, ptr noundef nonnull %9) #7
  %30 = icmp eq i32 %29, 0
  br i1 %30, label %37, label %31

31:                                               ; preds = %28
  %32 = load ptr, ptr %4, align 8, !tbaa !4
  %33 = load i64, ptr %5, align 8, !tbaa !9
  %34 = load ptr, ptr %7, align 8, !tbaa !11
  %35 = load ptr, ptr %9, align 8, !tbaa !11
  %36 = call i32 @file_ascmagic_with_encoding(ptr noundef %0, ptr noundef nonnull %6, ptr noundef %32, i64 noundef %33, ptr noundef %34, ptr noundef %35, i32 noundef %2)
  br label %37

37:                                               ; preds = %28, %31
  %.0 = phi i32 [ %36, %31 ], [ 0, %28 ]
  %38 = load ptr, ptr %4, align 8, !tbaa !4
  call void @_efree(ptr noundef %38) #7
  call void @llvm.lifetime.end.p0(i64 8, ptr nonnull %9) #7
  call void @llvm.lifetime.end.p0(i64 8, ptr nonnull %8) #7
  call void @llvm.lifetime.end.p0(i64 8, ptr nonnull %7) #7
  call void @llvm.lifetime.end.p0(i64 192, ptr nonnull %6) #7
  call void @llvm.lifetime.end.p0(i64 8, ptr nonnull %5) #7
  call void @llvm.lifetime.end.p0(i64 8, ptr nonnull %4) #7
  ret i32 %.0
}